#include <math.h>
#include <stdio.h>
#include <stdlib.h>
#include <string.h>
#include <iostream>
using namespace std;

//********************************
//*?????????   **
//*????? 1300012845 **
//*???2013.10.23  **
//********************************
int main ()//???
{
	int i,j,k,m,s;//??????i?k
	cin >> m;
	for (i=3; i<=m/2; i+=2)//?i?????m/2???
	{
		s=sqrt(i);
		for (j=2; j<=s;j++)
		{
			if (i%j==0)
				break;
		}
		if (j==s+1)//??????????i?????
		{
			k=m-i;
			s=sqrt(k);
			for (j=2; j<=s;j++)//??k?????
			{
				if (k%j==0)
					break;
			}
			if (j==s+1)
				cout << i << " "<< k<< endl;
		}
	}
	return 0;
}